target datalayout = "e-m:e-p270:32:32-p271:32:32-p272:64:64-i64:64-i128:128-f80:128-n8:16:32:64-S128"
target triple = "x86_64-pc-linux-gnu"

%struct.rb_shape_tree_t = type { ptr, ptr, i32, ptr, i32 }
%struct.rb_shape = type { ptr, i64, i32, i32, i8, i8, i32, ptr }
%struct.RClass_and_rb_classext_t = type { %struct.RClass, %struct.rb_classext_struct }
%struct.RClass = type { %struct.RBasic, i64, ptr }
%struct.RBasic = type { i64, i64 }
%struct.rb_classext_struct = type { ptr, ptr, ptr, ptr, ptr, i64, ptr, ptr, ptr, ptr, i64, i64, %union.anon, i64, i32, i8, i8, i64 }
%union.anon = type { %struct.anon }
%struct.anon = type { ptr }
%struct.gen_ivtbl = type { %union.anon.1 }
%union.anon.1 = type { %struct.anon.2 }
%struct.anon.2 = type { i32, [1 x i64] }
%struct.RObject = type { %struct.RBasic, %union.anon.18 }
%union.anon.18 = type { %struct.anon.19 }
%struct.anon.19 = type { ptr }

@rb_shape_tree_ptr = hidden global ptr null, align 8

; Function Attrs: inlinehint nounwind sspstrong uwtable
define internal ptr @rb_current_shape_tree() #1 {
  %1 = load ptr, ptr @rb_shape_tree_ptr, align 8, !tbaa !15
  ret ptr %1
}

; Function Attrs: nounwind sspstrong uwtable
define dso_local i32 @rb_shape_id(ptr noundef %0) #0 {
  %2 = alloca ptr, align 8
  store ptr %0, ptr %2, align 8, !tbaa !16
  %3 = load ptr, ptr %2, align 8, !tbaa !16
  %4 = call ptr @rb_current_shape_tree()
  %5 = getelementptr inbounds nuw %struct.rb_shape_tree_t, ptr %4, i32 0, i32 0
  %6 = load ptr, ptr %5, align 8, !tbaa !17
  %7 = ptrtoint ptr %3 to i64
  %8 = ptrtoint ptr %6 to i64
  %9 = sub i64 %7, %8
  %10 = sdiv exact i64 %9, 40
  %11 = trunc i64 %10 to i32
  ret i32 %11
}

; Function Attrs: alwaysinline nounwind
define internal ptr @memcpy.inline(ptr noalias nonnull %0, ptr noalias nonnull %1, i64 %2) #7 {
  %4 = alloca ptr, align 8
  %5 = alloca ptr, align 8
  %6 = alloca i64, align 8
  store ptr %0, ptr %4, align 8, !tbaa !15
  store ptr %1, ptr %5, align 8, !tbaa !15
  store i64 %2, ptr %6, align 8, !tbaa !26
  %7 = load ptr, ptr %4, align 8, !tbaa !15
  %8 = load ptr, ptr %5, align 8, !tbaa !15
  %9 = load i64, ptr %6, align 8, !tbaa !26
  %10 = load ptr, ptr %4, align 8, !tbaa !15
  %11 = call i64 @llvm.objectsize.i64.p0(ptr %10, i1 false, i1 true, i1 false)
  %12 = call ptr @__memcpy_chk(ptr noundef %7, ptr noundef %8, i64 noundef %9, i64 noundef %11) #14
  ret ptr %12
}

; Function Attrs: inlinehint nounwind sspstrong memory(argmem: readwrite, inaccessiblemem: readwrite) uwtable
define internal void @rbimpl_fl_set_raw_raw(ptr noundef %0, i64 noundef %1) #8 {
  %3 = alloca ptr, align 8
  %4 = alloca i64, align 8
  store ptr %0, ptr %3, align 8, !tbaa !68
  store i64 %1, ptr %4, align 8, !tbaa !26
  %5 = load i64, ptr %4, align 8, !tbaa !26
  %6 = load ptr, ptr %3, align 8, !tbaa !68
  %7 = getelementptr inbounds nuw %struct.RBasic, ptr %6, i32 0, i32 0
  %8 = load i64, ptr %7, align 8, !tbaa !44
  %9 = or i64 %8, %5
  store i64 %9, ptr %7, align 8, !tbaa !44
  ret void
}

; Function Attrs: inlinehint nounwind sspstrong willreturn memory(read) uwtable
define internal zeroext i1 @RB_FL_ANY_RAW(i64 noundef %0, i64 noundef %1) #5 {
  %3 = alloca i64, align 8
  %4 = alloca i64, align 8
  store i64 %0, ptr %3, align 8, !tbaa !26
  store i64 %1, ptr %4, align 8, !tbaa !26
  %5 = load i64, ptr %3, align 8, !tbaa !26
  %6 = load i64, ptr %4, align 8, !tbaa !26
  %7 = call i64 @RB_FL_TEST_RAW(i64 noundef %5, i64 noundef %6) #16
  %8 = icmp ne i64 %7, 0
  ret i1 %8
}

; Function Attrs: nounwind sspstrong uwtable
define hidden void @rb_shape_set_shape(i64 noundef %0, ptr noundef %1) #0 {
  %3 = alloca i64, align 8
  %4 = alloca ptr, align 8
  store i64 %0, ptr %3, align 8, !tbaa !26
  store ptr %1, ptr %4, align 8, !tbaa !16
  %5 = load i64, ptr %3, align 8, !tbaa !26
  %6 = load ptr, ptr %4, align 8, !tbaa !16
  %7 = call i32 @rb_shape_id(ptr noundef %6)
  %8 = call zeroext i1 @rb_shape_set_shape_id(i64 noundef %5, i32 noundef %7)
  ret void
}

; Function Attrs: inlinehint nounwind sspstrong memory(argmem: readwrite, inaccessiblemem: readwrite) uwtable
define internal nonnull ptr @ruby_nonempty_memcpy(ptr noundef nonnull %0, ptr noundef %1, i64 noundef %2) #8 {
  %4 = alloca ptr, align 8
  %5 = alloca ptr, align 8
  %6 = alloca ptr, align 8
  %7 = alloca i64, align 8
  store ptr %0, ptr %5, align 8, !tbaa !15
  store ptr %1, ptr %6, align 8, !tbaa !15
  store i64 %2, ptr %7, align 8, !tbaa !26
  %8 = load i64, ptr %7, align 8, !tbaa !26
  %9 = icmp ne i64 %8, 0
  br i1 %9, label %10, label %15

10:                                               ; preds = %3
  %11 = load ptr, ptr %5, align 8, !tbaa !15
  %12 = load ptr, ptr %6, align 8, !tbaa !15
  %13 = load i64, ptr %7, align 8, !tbaa !26
  %14 = call ptr @memcpy.inline(ptr noundef %11, ptr noundef %12, i64 noundef %13) #14
  store ptr %14, ptr %4, align 8
  br label %17

15:                                               ; preds = %3
  %16 = load ptr, ptr %5, align 8, !tbaa !15
  store ptr %16, ptr %4, align 8
  br label %17

17:                                               ; preds = %15, %10
  %18 = load ptr, ptr %4, align 8
  ret ptr %18
}

; Function Attrs: inlinehint nounwind sspstrong uwtable
define internal void @RB_FL_SET_RAW(i64 noundef %0, i64 noundef %1) #1 {
  %3 = alloca i64, align 8
  %4 = alloca i64, align 8
  store i64 %0, ptr %3, align 8, !tbaa !26
  store i64 %1, ptr %4, align 8, !tbaa !26
  %5 = load i64, ptr %3, align 8, !tbaa !26
  %6 = inttoptr i64 %5 to ptr
  %7 = load i64, ptr %4, align 8, !tbaa !26
  call void @rbimpl_fl_set_raw_raw(ptr noundef %6, i64 noundef %7) #17
  ret void
}

; Function Attrs: inlinehint nounwind sspstrong willreturn memory(read) uwtable
define internal i64 @RB_FL_TEST_RAW(i64 noundef %0, i64 noundef %1) #5 {
  %3 = alloca i64, align 8
  %4 = alloca i64, align 8
  store i64 %0, ptr %3, align 8, !tbaa !26
  store i64 %1, ptr %4, align 8, !tbaa !26
  %5 = load i64, ptr %3, align 8, !tbaa !26
  %6 = inttoptr i64 %5 to ptr
  %7 = getelementptr inbounds nuw %struct.RBasic, ptr %6, i32 0, i32 0
  %8 = load i64, ptr %7, align 8, !tbaa !44
  %9 = load i64, ptr %4, align 8, !tbaa !26
  %10 = and i64 %8, %9
  ret i64 %10
}

; Function Attrs: alwaysinline nounwind
define internal ptr @memmove.inline(ptr nonnull %0, ptr nonnull %1, i64 %2) #7 {
  %4 = alloca ptr, align 8
  %5 = alloca ptr, align 8
  %6 = alloca i64, align 8
  store ptr %0, ptr %4, align 8, !tbaa !15
  store ptr %1, ptr %5, align 8, !tbaa !15
  store i64 %2, ptr %6, align 8, !tbaa !26
  %7 = load ptr, ptr %4, align 8, !tbaa !15
  %8 = load ptr, ptr %5, align 8, !tbaa !15
  %9 = load i64, ptr %6, align 8, !tbaa !26
  %10 = load ptr, ptr %4, align 8, !tbaa !15
  %11 = call i64 @llvm.objectsize.i64.p0(ptr %10, i1 false, i1 true, i1 false)
  %12 = call ptr @__memmove_chk(ptr noundef %7, ptr noundef %8, i64 noundef %9, i64 noundef %11) #14
  ret ptr %12
}

; Function Attrs: inlinehint nounwind sspstrong willreturn memory(read) uwtable
define internal ptr @ROBJECT_IVPTR(i64 noundef %0) #5 {
  %2 = alloca ptr, align 8
  %3 = alloca i64, align 8
  %4 = alloca ptr, align 8
  %5 = alloca i32, align 4
  store i64 %0, ptr %3, align 8, !tbaa !26
  call void @llvm.lifetime.start.p0(i64 8, ptr %4) #14
  %6 = load i64, ptr %3, align 8, !tbaa !26
  %7 = inttoptr i64 %6 to ptr
  store ptr %7, ptr %4, align 8, !tbaa !45
  %8 = load i64, ptr %3, align 8, !tbaa !26
  %9 = call zeroext i1 @RB_FL_ANY_RAW(i64 noundef %8, i64 noundef 8192) #16
  br i1 %9, label %10, label %14

10:                                               ; preds = %1
  %11 = load ptr, ptr %4, align 8, !tbaa !45
  %12 = getelementptr inbounds nuw %struct.RObject, ptr %11, i32 0, i32 1
  %13 = getelementptr inbounds [1 x i64], ptr %12, i64 0, i64 0
  store ptr %13, ptr %2, align 8
  store i32 1, ptr %5, align 4
  br label %19

14:                                               ; preds = %1
  %15 = load ptr, ptr %4, align 8, !tbaa !45
  %16 = getelementptr inbounds nuw %struct.RObject, ptr %15, i32 0, i32 1
  %17 = getelementptr inbounds nuw %struct.anon.19, ptr %16, i32 0, i32 0
  %18 = load ptr, ptr %17, align 8, !tbaa !47
  store ptr %18, ptr %2, align 8
  store i32 1, ptr %5, align 4
  br label %19

19:                                               ; preds = %14, %10
  call void @llvm.lifetime.end.p0(i64 8, ptr %4) #14
  %20 = load ptr, ptr %2, align 8
  ret ptr %20
}

; Function Attrs: inlinehint nounwind sspstrong willreturn memory(read) uwtable
define internal i32 @RB_BUILTIN_TYPE(i64 noundef %0) #5 {
  %2 = alloca i64, align 8
  %3 = alloca i64, align 8
  store i64 %0, ptr %2, align 8, !tbaa !26
  call void @llvm.lifetime.start.p0(i64 8, ptr %3) #14
  %4 = load i64, ptr %2, align 8, !tbaa !26
  %5 = inttoptr i64 %4 to ptr
  %6 = getelementptr inbounds nuw %struct.RBasic, ptr %5, i32 0, i32 0
  %7 = load i64, ptr %6, align 8, !tbaa !44
  %8 = and i64 %7, 31
  store i64 %8, ptr %3, align 8, !tbaa !26
  %9 = load i64, ptr %3, align 8, !tbaa !26
  %10 = trunc i64 %9 to i32
  call void @llvm.lifetime.end.p0(i64 8, ptr %3) #14
  ret i32 %10
}

; Function Attrs: nounwind sspstrong uwtable
define hidden zeroext i1 @rb_shape_transition_shape_remove_ivar(i64 noundef %0, i64 noundef %1, ptr noundef %2, ptr noundef %3) #0 {
  %5 = alloca i1, align 1
  %6 = alloca i64, align 8
  %7 = alloca i64, align 8
  %8 = alloca ptr, align 8
  %9 = alloca ptr, align 8
  %10 = alloca ptr, align 8
  %11 = alloca ptr, align 8
  %12 = alloca i32, align 4
  %13 = alloca ptr, align 8
  %14 = alloca ptr, align 8
  store i64 %0, ptr %6, align 8, !tbaa !26
  store i64 %1, ptr %7, align 8, !tbaa !26
  store ptr %2, ptr %8, align 8, !tbaa !16
  store ptr %3, ptr %9, align 8, !tbaa !29
  %15 = load ptr, ptr %8, align 8, !tbaa !16
  %16 = getelementptr inbounds nuw %struct.rb_shape, ptr %15, i32 0, i32 4
  %17 = load i8, ptr %16, align 8, !tbaa !28
  %18 = zext i8 %17 to i32
  %19 = icmp eq i32 %18, 4
  %20 = xor i1 %19, true
  %21 = xor i1 %20, true
  %22 = zext i1 %21 to i32
  %23 = sext i32 %22 to i64
  %24 = call i64 @llvm.expect.i64(i64 %23, i64 0)
  %25 = icmp ne i64 %24, 0
  br i1 %25, label %26, label %27

26:                                               ; preds = %4
  store i1 false, ptr %5, align 1
  br label %132

27:                                               ; preds = %4
  call void @llvm.lifetime.start.p0(i64 8, ptr %10) #14
  store ptr null, ptr %10, align 8, !tbaa !16
  call void @llvm.lifetime.start.p0(i64 8, ptr %11) #14
  %28 = load ptr, ptr %8, align 8, !tbaa !16
  %29 = load i64, ptr %7, align 8, !tbaa !26
  %30 = call ptr @remove_shape_recursive(ptr noundef %28, i64 noundef %29, ptr noundef %10)
  store ptr %30, ptr %11, align 8, !tbaa !16
  %31 = load ptr, ptr %11, align 8, !tbaa !16
  %32 = icmp ne ptr %31, null
  br i1 %32, label %33, label %130

33:                                               ; preds = %27
  %34 = load ptr, ptr %11, align 8, !tbaa !16
  %35 = getelementptr inbounds nuw %struct.rb_shape, ptr %34, i32 0, i32 4
  %36 = load i8, ptr %35, align 8, !tbaa !28
  %37 = zext i8 %36 to i32
  %38 = icmp eq i32 %37, 4
  %39 = xor i1 %38, true
  %40 = xor i1 %39, true
  %41 = zext i1 %40 to i32
  %42 = sext i32 %41 to i64
  %43 = call i64 @llvm.expect.i64(i64 %42, i64 0)
  %44 = icmp ne i64 %43, 0
  br i1 %44, label %45, label %46

45:                                               ; preds = %33
  store i1 false, ptr %5, align 1
  store i32 1, ptr %12, align 4
  br label %131

46:                                               ; preds = %33
  call void @llvm.lifetime.start.p0(i64 8, ptr %13) #14
  %47 = load i64, ptr %6, align 8, !tbaa !26
  %48 = call i32 @RB_BUILTIN_TYPE(i64 noundef %47) #16
  switch i32 %48, label %58 [
    i32 2, label %49
    i32 3, label %49
    i32 1, label %55
  ]

49:                                               ; preds = %46, %46
  %50 = load i64, ptr %6, align 8, !tbaa !26
  %51 = inttoptr i64 %50 to ptr
  %52 = getelementptr inbounds nuw %struct.RClass_and_rb_classext_t, ptr %51, i32 0, i32 1
  %53 = getelementptr inbounds nuw %struct.rb_classext_struct, ptr %52, i32 0, i32 0
  %54 = load ptr, ptr %53, align 8, !tbaa !31
  store ptr %54, ptr %13, align 8, !tbaa !29
  br label %66

55:                                               ; preds = %46
  %56 = load i64, ptr %6, align 8, !tbaa !26
  %57 = call ptr @ROBJECT_IVPTR(i64 noundef %56) #16
  store ptr %57, ptr %13, align 8, !tbaa !29
  br label %66

58:                                               ; preds = %46
  call void @llvm.lifetime.start.p0(i64 8, ptr %14) #14
  %59 = load i64, ptr %6, align 8, !tbaa !26
  %60 = load i64, ptr %7, align 8, !tbaa !26
  %61 = call i32 @rb_gen_ivtbl_get(i64 noundef %59, i64 noundef %60, ptr noundef %14)
  %62 = load ptr, ptr %14, align 8, !tbaa !38
  %63 = getelementptr inbounds nuw %struct.gen_ivtbl, ptr %62, i32 0, i32 0
  %64 = getelementptr inbounds nuw %struct.anon.2, ptr %63, i32 0, i32 1
  %65 = getelementptr inbounds [1 x i64], ptr %64, i64 0, i64 0
  store ptr %65, ptr %13, align 8, !tbaa !29
  store i32 2, ptr %12, align 4
  call void @llvm.lifetime.end.p0(i64 8, ptr %14) #14
  br label %66

66:                                               ; preds = %58, %55, %49
  %67 = load ptr, ptr %13, align 8, !tbaa !29
  %68 = load ptr, ptr %10, align 8, !tbaa !16
  %69 = getelementptr inbounds nuw %struct.rb_shape, ptr %68, i32 0, i32 2
  %70 = load i32, ptr %69, align 8, !tbaa !40
  %71 = sub i32 %70, 1
  %72 = zext i32 %71 to i64
  %73 = getelementptr i64, ptr %67, i64 %72
  %74 = load i64, ptr %73, align 8, !tbaa !26
  %75 = load ptr, ptr %9, align 8, !tbaa !29
  store i64 %74, ptr %75, align 8, !tbaa !26
  %76 = load ptr, ptr %13, align 8, !tbaa !29
  %77 = load ptr, ptr %10, align 8, !tbaa !16
  %78 = getelementptr inbounds nuw %struct.rb_shape, ptr %77, i32 0, i32 2
  %79 = load i32, ptr %78, align 8, !tbaa !40
  %80 = sub i32 %79, 1
  %81 = zext i32 %80 to i64
  %82 = getelementptr i64, ptr %76, i64 %81
  %83 = load ptr, ptr %13, align 8, !tbaa !29
  %84 = load ptr, ptr %10, align 8, !tbaa !16
  %85 = getelementptr inbounds nuw %struct.rb_shape, ptr %84, i32 0, i32 2
  %86 = load i32, ptr %85, align 8, !tbaa !40
  %87 = zext i32 %86 to i64
  %88 = getelementptr i64, ptr %83, i64 %87
  %89 = load ptr, ptr %11, align 8, !tbaa !16
  %90 = getelementptr inbounds nuw %struct.rb_shape, ptr %89, i32 0, i32 2
  %91 = load i32, ptr %90, align 8, !tbaa !40
  %92 = add i32 %91, 1
  %93 = load ptr, ptr %10, align 8, !tbaa !16
  %94 = getelementptr inbounds nuw %struct.rb_shape, ptr %93, i32 0, i32 2
  %95 = load i32, ptr %94, align 8, !tbaa !40
  %96 = sub i32 %92, %95
  %97 = zext i32 %96 to i64
  %98 = mul i64 %97, 8
  %99 = call ptr @memmove.inline(ptr noundef %82, ptr noundef %88, i64 noundef %98) #14
  %100 = load i64, ptr %6, align 8, !tbaa !26
  %101 = call i32 @RB_BUILTIN_TYPE(i64 noundef %100) #16
  %102 = icmp eq i32 %101, 1
  br i1 %102, label %103, label %127

103:                                              ; preds = %66
  %104 = load i64, ptr %6, align 8, !tbaa !26
  %105 = call i64 @RB_FL_TEST_RAW(i64 noundef %104, i64 noundef 8192) #16
  %106 = icmp ne i64 %105, 0
  br i1 %106, label %127, label %107

107:                                              ; preds = %103
  %108 = load ptr, ptr %11, align 8, !tbaa !16
  %109 = getelementptr inbounds nuw %struct.rb_shape, ptr %108, i32 0, i32 2
  %110 = load i32, ptr %109, align 8, !tbaa !40
  %111 = call i64 @rb_obj_embedded_size(i32 noundef %110)
  %112 = load i64, ptr %6, align 8, !tbaa !26
  %113 = call i64 @rb_gc_obj_slot_size(i64 noundef %112)
  %114 = icmp ule i64 %111, %113
  br i1 %114, label %115, label %127

115:                                              ; preds = %107
  %116 = load i64, ptr %6, align 8, !tbaa !26
  call void @RB_FL_SET_RAW(i64 noundef %116, i64 noundef 8192)
  %117 = load i64, ptr %6, align 8, !tbaa !26
  %118 = call ptr @ROBJECT_IVPTR(i64 noundef %117) #16
  %119 = load ptr, ptr %13, align 8, !tbaa !29
  %120 = load ptr, ptr %11, align 8, !tbaa !16
  %121 = getelementptr inbounds nuw %struct.rb_shape, ptr %120, i32 0, i32 2
  %122 = load i32, ptr %121, align 8, !tbaa !40
  %123 = zext i32 %122 to i64
  %124 = mul i64 %123, 8
  %125 = call nonnull ptr @ruby_nonempty_memcpy(ptr noundef %118, ptr noundef %119, i64 noundef %124) #17
  %126 = load ptr, ptr %13, align 8, !tbaa !29
  call void @ruby_xfree(ptr noundef %126)
  br label %127

127:                                              ; preds = %115, %107, %103, %66
  %128 = load i64, ptr %6, align 8, !tbaa !26
  %129 = load ptr, ptr %11, align 8, !tbaa !16
  call void @rb_shape_set_shape(i64 noundef %128, ptr noundef %129)
  call void @llvm.lifetime.end.p0(i64 8, ptr %13) #14
  br label %130

130:                                              ; preds = %127, %27
  store i1 true, ptr %5, align 1
  store i32 1, ptr %12, align 4
  br label %131

131:                                              ; preds = %130, %45
  call void @llvm.lifetime.end.p0(i64 8, ptr %11) #14
  call void @llvm.lifetime.end.p0(i64 8, ptr %10) #14
  br label %132

132:                                              ; preds = %131, %26
  %133 = load i1, ptr %5, align 1
  ret i1 %133
}