; Function Attrs: nounwind sspstrong uwtable
define hidden noundef zeroext i1 @rb_shape_transition_shape_remove_ivar(i64 noundef %0, i64 noundef %1, ptr noundef %2, ptr noundef writeonly captures(none) %3) local_unnamed_addr #1 {
  %5 = alloca ptr, align 8
  %6 = alloca ptr, align 8
  %7 = getelementptr inbounds nuw i8, ptr %2, i64 24
  %8 = load i8, ptr %7, align 8, !tbaa !27
  %9 = icmp eq i8 %8, 4
  br i1 %9, label %70, label %10, !prof !28

10:                                               ; preds = %4
  call void @llvm.lifetime.start.p0(i64 8, ptr nonnull %5) #15
  store ptr null, ptr %5, align 8, !tbaa !29
  %11 = call fastcc ptr @remove_shape_recursive(ptr noundef nonnull %2, i64 noundef %1, ptr noundef %5)
  %.not = icmp eq ptr %11, null
  br i1 %.not, label %69, label %12

12:                                               ; preds = %10
  %13 = getelementptr inbounds nuw i8, ptr %11, i64 24
  %14 = load i8, ptr %13, align 8, !tbaa !27
  %15 = icmp eq i8 %14, 4
  br i1 %15, label %69, label %16, !prof !28

16:                                               ; preds = %12
  %17 = inttoptr i64 %0 to ptr
  %18 = load i64, ptr %17, align 8, !tbaa !24
  %19 = trunc i64 %18 to i32
  %20 = and i32 %19, 31
  switch i32 %20, label %29 [
    i32 2, label %21
    i32 3, label %21
    i32 1, label %24
  ]

21:                                               ; preds = %16, %16
  %22 = getelementptr inbounds nuw i8, ptr %17, i64 32
  %23 = load ptr, ptr %22, align 8, !tbaa !30
  br label %ROBJECT_IVPTR.exit

24:                                               ; preds = %16
  %25 = and i64 %18, 8192
  %.not.i = icmp eq i64 %25, 0
  %26 = getelementptr inbounds nuw i8, ptr %17, i64 16
  br i1 %.not.i, label %27, label %ROBJECT_IVPTR.exit

27:                                               ; preds = %24
  %28 = load ptr, ptr %26, align 8, !tbaa !37
  br label %ROBJECT_IVPTR.exit

29:                                               ; preds = %16
  call void @llvm.lifetime.start.p0(i64 8, ptr nonnull %6) #15
  %30 = call i32 @rb_gen_ivtbl_get(i64 noundef %0, i64 noundef %1, ptr noundef nonnull %6) #15
  %31 = load ptr, ptr %6, align 8, !tbaa !38
  %32 = getelementptr inbounds nuw i8, ptr %31, i64 8
  call void @llvm.lifetime.end.p0(i64 8, ptr nonnull %6) #15
  br label %ROBJECT_IVPTR.exit

ROBJECT_IVPTR.exit:                               ; preds = %27, %24, %29, %21
  %.0 = phi ptr [ %32, %29 ], [ %23, %21 ], [ %28, %27 ], [ %26, %24 ]
  %33 = load ptr, ptr %5, align 8, !tbaa !29
  %34 = getelementptr inbounds nuw i8, ptr %33, i64 16
  %35 = load i32, ptr %34, align 8, !tbaa !40
  %36 = add i32 %35, -1
  %37 = zext i32 %36 to i64
  %38 = getelementptr i64, ptr %.0, i64 %37
  %39 = load i64, ptr %38, align 8, !tbaa !41
  store i64 %39, ptr %3, align 8, !tbaa !41
  %40 = zext i32 %35 to i64
  %41 = getelementptr i64, ptr %.0, i64 %40
  %42 = getelementptr inbounds nuw i8, ptr %11, i64 16
  %43 = load i32, ptr %42, align 8, !tbaa !40
  %reass.sub = sub i32 %43, %35
  %44 = add i32 %reass.sub, 1
  %45 = zext i32 %44 to i64
  %46 = shl nuw nsw i64 %45, 3
  call void @llvm.memmove.p0.p0.i64(ptr noundef nonnull align 1 %38, ptr noundef nonnull align 1 %41, i64 noundef range(i64 0, 34359738361) %46, i1 noundef false) #15
  %47 = load i64, ptr %17, align 8, !tbaa !24
  %48 = and i64 %47, 8223
  %or.cond = icmp eq i64 %48, 1
  br i1 %or.cond, label %49, label %60

49:                                               ; preds = %ROBJECT_IVPTR.exit
  %50 = load i32, ptr %42, align 8, !tbaa !40
  %51 = call i64 @rb_obj_embedded_size(i32 noundef %50) #15
  %52 = call i64 @rb_gc_obj_slot_size(i64 noundef %0) #15
  %.not29 = icmp ugt i64 %51, %52
  br i1 %.not29, label %60, label %ROBJECT_IVPTR.exit32

ROBJECT_IVPTR.exit32:                             ; preds = %49
  %53 = load i64, ptr %17, align 8, !tbaa !24
  %54 = or i64 %53, 8192
  store i64 %54, ptr %17, align 8, !tbaa !24
  %55 = load i32, ptr %42, align 8, !tbaa !40
  %.not.i33 = icmp eq i32 %55, 0
  br i1 %.not.i33, label %ruby_nonempty_memcpy.exit, label %56

56:                                               ; preds = %ROBJECT_IVPTR.exit32
  %57 = zext i32 %55 to i64
  %58 = shl nuw nsw i64 %57, 3
  %59 = getelementptr inbounds nuw i8, ptr %17, i64 16
  call void @llvm.memcpy.p0.p0.i64(ptr noundef nonnull align 1 %59, ptr noundef nonnull readonly align 1 %.0, i64 noundef range(i64 1, 34359738361) %58, i1 noundef false) #15
  br label %ruby_nonempty_memcpy.exit

ruby_nonempty_memcpy.exit:                        ; preds = %ROBJECT_IVPTR.exit32, %56
  call void @ruby_xfree(ptr noundef nonnull %.0) #15
  br label %60

60:                                               ; preds = %ruby_nonempty_memcpy.exit, %49, %ROBJECT_IVPTR.exit
  %61 = load ptr, ptr @rb_shape_tree_ptr, align 8, !tbaa !7
  %62 = load ptr, ptr %61, align 8, !tbaa !16
  %63 = ptrtoint ptr %11 to i64
  %64 = ptrtoint ptr %62 to i64
  %65 = sub i64 %63, %64
  %66 = sdiv exact i64 %65, 40
  %67 = trunc i64 %66 to i32
  %68 = call zeroext i1 @rb_shape_set_shape_id(i64 noundef %0, i32 noundef %67) #15
  br label %69

69:                                               ; preds = %10, %60, %12
  %.1 = phi i1 [ false, %12 ], [ true, %60 ], [ true, %10 ]
  call void @llvm.lifetime.end.p0(i64 8, ptr nonnull %5) #15
  br label %70

70:                                               ; preds = %4, %69
  %.026 = phi i1 [ %.1, %69 ], [ false, %4 ]
  ret i1 %.026
}